; Function Attrs: mustprogress nounwind uwtable
define dso_local { i64, ptr } @_ZNK4llvm6object15XCOFFObjectFile11section_endEv(ptr noundef nonnull align 8 dereferenceable(96) %0) unnamed_addr #0 align 2 {
  %2 = getelementptr inbounds nuw i8, ptr %0, i64 64
  %3 = load ptr, ptr %2, align 8
  %4 = ptrtoint ptr %3 to i64
  %5 = load ptr, ptr %0, align 8
  %6 = getelementptr inbounds i8, ptr %5, i64 64
  %7 = load ptr, ptr %6, align 8
  %8 = tail call noundef zeroext i1 %7(ptr noundef nonnull align 8 dereferenceable(96) %0) #23
  %9 = getelementptr inbounds nuw i8, ptr %0, i64 48
  %10 = load ptr, ptr %9, align 8
  %11 = getelementptr inbounds nuw i8, ptr %10, i64 2
  call void @llvm.assume(i1 true) [ "align"(ptr %11, i64 1) ]
  %.0.copyload.i.i.i.i = load i16, ptr %11, align 1
  %rev.i.i.i.i.i.i.i.i = tail call noundef i16 @llvm.bswap.i16(i16 %.0.copyload.i.i.i.i)
  %12 = zext i16 %rev.i.i.i.i.i.i.i.i to i64
  %13 = load ptr, ptr %0, align 8
  %14 = getelementptr inbounds i8, ptr %13, i64 64
  %15 = load ptr, ptr %14, align 8
  %16 = tail call noundef zeroext i1 %15(ptr noundef nonnull align 8 dereferenceable(96) %0) #23
  %17 = select i1 %16, i64 72, i64 40
  %18 = mul nuw nsw i64 %17, %12
  %19 = add i64 %18, %4
  %.fca.0.insert = insertvalue { i64, ptr } poison, i64 %19, 0
  %.fca.1.insert = insertvalue { i64, ptr } %.fca.0.insert, ptr %0, 1
  ret { i64, ptr } %.fca.1.insert
}